ARM GAS  C:\Users\Karsten\AppData\Local\Temp\ccFWJHRR.s 			page 1


   1              		.cpu cortex-m0
   2              		.fpu softvfp
   3              		.eabi_attribute 20, 1
   4              		.eabi_attribute 21, 1
   5              		.eabi_attribute 23, 3
   6              		.eabi_attribute 24, 1
   7              		.eabi_attribute 25, 1
   8              		.eabi_attribute 26, 1
   9              		.eabi_attribute 30, 6
  10              		.eabi_attribute 34, 0
  11              		.eabi_attribute 18, 4
  12              		.code	16
  13              		.file	"LCD_Char_1_LCDPort.c"
  14              		.text
  15              	.Ltext0:
  16              		.cfi_sections	.debug_frame
  17              		.section	.text.LCD_Char_1_LCDPort_Write,"ax",%progbits
  18              		.align	2
  19              		.global	LCD_Char_1_LCDPort_Write
  20              		.code	16
  21              		.thumb_func
  22              		.type	LCD_Char_1_LCDPort_Write, %function
  23              	LCD_Char_1_LCDPort_Write:
  24              	.LFB0:
  25              		.file 1 ".\\Generated_Source\\PSoC4\\LCD_Char_1_LCDPort.c"
   1:.\Generated_Source\PSoC4/LCD_Char_1_LCDPort.c **** /*******************************************************************************
   2:.\Generated_Source\PSoC4/LCD_Char_1_LCDPort.c **** * File Name: LCD_Char_1_LCDPort.c  
   3:.\Generated_Source\PSoC4/LCD_Char_1_LCDPort.c **** * Version 2.10
   4:.\Generated_Source\PSoC4/LCD_Char_1_LCDPort.c **** *
   5:.\Generated_Source\PSoC4/LCD_Char_1_LCDPort.c **** * Description:
   6:.\Generated_Source\PSoC4/LCD_Char_1_LCDPort.c **** *  This file contains API to enable firmware control of a Pins component.
   7:.\Generated_Source\PSoC4/LCD_Char_1_LCDPort.c **** *
   8:.\Generated_Source\PSoC4/LCD_Char_1_LCDPort.c **** * Note:
   9:.\Generated_Source\PSoC4/LCD_Char_1_LCDPort.c **** *
  10:.\Generated_Source\PSoC4/LCD_Char_1_LCDPort.c **** ********************************************************************************
  11:.\Generated_Source\PSoC4/LCD_Char_1_LCDPort.c **** * Copyright 2008-2014, Cypress Semiconductor Corporation.  All rights reserved.
  12:.\Generated_Source\PSoC4/LCD_Char_1_LCDPort.c **** * You may use this file only in accordance with the license, terms, conditions, 
  13:.\Generated_Source\PSoC4/LCD_Char_1_LCDPort.c **** * disclaimers, and limitations in the end user license agreement accompanying 
  14:.\Generated_Source\PSoC4/LCD_Char_1_LCDPort.c **** * the software package with which this file was provided.
  15:.\Generated_Source\PSoC4/LCD_Char_1_LCDPort.c **** *******************************************************************************/
  16:.\Generated_Source\PSoC4/LCD_Char_1_LCDPort.c **** 
  17:.\Generated_Source\PSoC4/LCD_Char_1_LCDPort.c **** #include "cytypes.h"
  18:.\Generated_Source\PSoC4/LCD_Char_1_LCDPort.c **** #include "LCD_Char_1_LCDPort.h"
  19:.\Generated_Source\PSoC4/LCD_Char_1_LCDPort.c **** 
  20:.\Generated_Source\PSoC4/LCD_Char_1_LCDPort.c **** #define SetP4PinDriveMode(shift, mode)  \
  21:.\Generated_Source\PSoC4/LCD_Char_1_LCDPort.c ****     do { \
  22:.\Generated_Source\PSoC4/LCD_Char_1_LCDPort.c ****         LCD_Char_1_LCDPort_PC =   (LCD_Char_1_LCDPort_PC & \
  23:.\Generated_Source\PSoC4/LCD_Char_1_LCDPort.c ****                                 (uint32)(~(uint32)(LCD_Char_1_LCDPort_DRIVE_MODE_IND_MASK << (LCD_C
  24:.\Generated_Source\PSoC4/LCD_Char_1_LCDPort.c ****                                 (uint32)((uint32)(mode) << (LCD_Char_1_LCDPort_DRIVE_MODE_BITS * (s
  25:.\Generated_Source\PSoC4/LCD_Char_1_LCDPort.c ****     } while (0)
  26:.\Generated_Source\PSoC4/LCD_Char_1_LCDPort.c **** 
  27:.\Generated_Source\PSoC4/LCD_Char_1_LCDPort.c **** 
  28:.\Generated_Source\PSoC4/LCD_Char_1_LCDPort.c **** /*******************************************************************************
  29:.\Generated_Source\PSoC4/LCD_Char_1_LCDPort.c **** * Function Name: LCD_Char_1_LCDPort_Write
  30:.\Generated_Source\PSoC4/LCD_Char_1_LCDPort.c **** ********************************************************************************
  31:.\Generated_Source\PSoC4/LCD_Char_1_LCDPort.c **** *
  32:.\Generated_Source\PSoC4/LCD_Char_1_LCDPort.c **** * Summary:
ARM GAS  C:\Users\Karsten\AppData\Local\Temp\ccFWJHRR.s 			page 2


  33:.\Generated_Source\PSoC4/LCD_Char_1_LCDPort.c **** *  Assign a new value to the digital port's data output register.  
  34:.\Generated_Source\PSoC4/LCD_Char_1_LCDPort.c **** *
  35:.\Generated_Source\PSoC4/LCD_Char_1_LCDPort.c **** * Parameters:  
  36:.\Generated_Source\PSoC4/LCD_Char_1_LCDPort.c **** *  prtValue:  The value to be assigned to the Digital Port. 
  37:.\Generated_Source\PSoC4/LCD_Char_1_LCDPort.c **** *
  38:.\Generated_Source\PSoC4/LCD_Char_1_LCDPort.c **** * Return: 
  39:.\Generated_Source\PSoC4/LCD_Char_1_LCDPort.c **** *  None 
  40:.\Generated_Source\PSoC4/LCD_Char_1_LCDPort.c **** *  
  41:.\Generated_Source\PSoC4/LCD_Char_1_LCDPort.c **** *******************************************************************************/
  42:.\Generated_Source\PSoC4/LCD_Char_1_LCDPort.c **** void LCD_Char_1_LCDPort_Write(uint8 value) 
  43:.\Generated_Source\PSoC4/LCD_Char_1_LCDPort.c **** {
  26              		.loc 1 43 0
  27              		.cfi_startproc
  28 0000 80B5     		push	{r7, lr}
  29              		.cfi_def_cfa_offset 8
  30              		.cfi_offset 7, -8
  31              		.cfi_offset 14, -4
  32 0002 84B0     		sub	sp, sp, #16
  33              		.cfi_def_cfa_offset 24
  34 0004 00AF     		add	r7, sp, #0
  35              		.cfi_def_cfa_register 7
  36 0006 021C     		mov	r2, r0
  37 0008 FB1D     		add	r3, r7, #7
  38 000a 1A70     		strb	r2, [r3]
  44:.\Generated_Source\PSoC4/LCD_Char_1_LCDPort.c ****     uint8 drVal = (uint8)(LCD_Char_1_LCDPort_DR & (uint8)(~LCD_Char_1_LCDPort_MASK));
  39              		.loc 1 44 0
  40 000c 0D4B     		ldr	r3, .L2
  41 000e 1B68     		ldr	r3, [r3]
  42 0010 D9B2     		uxtb	r1, r3
  43 0012 3B1C     		mov	r3, r7
  44 0014 0F33     		add	r3, r3, #15
  45 0016 0122     		mov	r2, #1
  46 0018 0A40     		and	r2, r1
  47 001a 1A70     		strb	r2, [r3]
  45:.\Generated_Source\PSoC4/LCD_Char_1_LCDPort.c ****     drVal = (drVal | ((uint8)(value << LCD_Char_1_LCDPort_SHIFT) & LCD_Char_1_LCDPort_MASK));
  48              		.loc 1 45 0
  49 001c FB1D     		add	r3, r7, #7
  50 001e 1B78     		ldrb	r3, [r3]
  51 0020 DB18     		add	r3, r3, r3
  52 0022 D9B2     		uxtb	r1, r3
  53 0024 3B1C     		mov	r3, r7
  54 0026 0F33     		add	r3, r3, #15
  55 0028 3A1C     		mov	r2, r7
  56 002a 0F32     		add	r2, r2, #15
  57 002c 1278     		ldrb	r2, [r2]
  58 002e 0A43     		orr	r2, r1
  59 0030 1A70     		strb	r2, [r3]
  46:.\Generated_Source\PSoC4/LCD_Char_1_LCDPort.c ****     LCD_Char_1_LCDPort_DR = (uint32)drVal;
  60              		.loc 1 46 0
  61 0032 044B     		ldr	r3, .L2
  62 0034 3A1C     		mov	r2, r7
  63 0036 0F32     		add	r2, r2, #15
  64 0038 1278     		ldrb	r2, [r2]
  65 003a 1A60     		str	r2, [r3]
  47:.\Generated_Source\PSoC4/LCD_Char_1_LCDPort.c **** }
  66              		.loc 1 47 0
  67 003c BD46     		mov	sp, r7
ARM GAS  C:\Users\Karsten\AppData\Local\Temp\ccFWJHRR.s 			page 3


  68 003e 04B0     		add	sp, sp, #16
  69              		@ sp needed
  70 0040 80BD     		pop	{r7, pc}
  71              	.L3:
  72 0042 C046     		.align	2
  73              	.L2:
  74 0044 00020440 		.word	1074004480
  75              		.cfi_endproc
  76              	.LFE0:
  77              		.size	LCD_Char_1_LCDPort_Write, .-LCD_Char_1_LCDPort_Write
  78              		.section	.text.LCD_Char_1_LCDPort_SetDriveMode,"ax",%progbits
  79              		.align	2
  80              		.global	LCD_Char_1_LCDPort_SetDriveMode
  81              		.code	16
  82              		.thumb_func
  83              		.type	LCD_Char_1_LCDPort_SetDriveMode, %function
  84              	LCD_Char_1_LCDPort_SetDriveMode:
  85              	.LFB1:
  48:.\Generated_Source\PSoC4/LCD_Char_1_LCDPort.c **** 
  49:.\Generated_Source\PSoC4/LCD_Char_1_LCDPort.c **** 
  50:.\Generated_Source\PSoC4/LCD_Char_1_LCDPort.c **** /*******************************************************************************
  51:.\Generated_Source\PSoC4/LCD_Char_1_LCDPort.c **** * Function Name: LCD_Char_1_LCDPort_SetDriveMode
  52:.\Generated_Source\PSoC4/LCD_Char_1_LCDPort.c **** ********************************************************************************
  53:.\Generated_Source\PSoC4/LCD_Char_1_LCDPort.c **** *
  54:.\Generated_Source\PSoC4/LCD_Char_1_LCDPort.c **** * Summary:
  55:.\Generated_Source\PSoC4/LCD_Char_1_LCDPort.c **** *  Change the drive mode on the pins of the port.
  56:.\Generated_Source\PSoC4/LCD_Char_1_LCDPort.c **** * 
  57:.\Generated_Source\PSoC4/LCD_Char_1_LCDPort.c **** * Parameters:  
  58:.\Generated_Source\PSoC4/LCD_Char_1_LCDPort.c **** *  mode:  Change the pins to one of the following drive modes.
  59:.\Generated_Source\PSoC4/LCD_Char_1_LCDPort.c **** *
  60:.\Generated_Source\PSoC4/LCD_Char_1_LCDPort.c **** *  LCD_Char_1_LCDPort_DM_STRONG     Strong Drive 
  61:.\Generated_Source\PSoC4/LCD_Char_1_LCDPort.c **** *  LCD_Char_1_LCDPort_DM_OD_HI      Open Drain, Drives High 
  62:.\Generated_Source\PSoC4/LCD_Char_1_LCDPort.c **** *  LCD_Char_1_LCDPort_DM_OD_LO      Open Drain, Drives Low 
  63:.\Generated_Source\PSoC4/LCD_Char_1_LCDPort.c **** *  LCD_Char_1_LCDPort_DM_RES_UP     Resistive Pull Up 
  64:.\Generated_Source\PSoC4/LCD_Char_1_LCDPort.c **** *  LCD_Char_1_LCDPort_DM_RES_DWN    Resistive Pull Down 
  65:.\Generated_Source\PSoC4/LCD_Char_1_LCDPort.c **** *  LCD_Char_1_LCDPort_DM_RES_UPDWN  Resistive Pull Up/Down 
  66:.\Generated_Source\PSoC4/LCD_Char_1_LCDPort.c **** *  LCD_Char_1_LCDPort_DM_DIG_HIZ    High Impedance Digital 
  67:.\Generated_Source\PSoC4/LCD_Char_1_LCDPort.c **** *  LCD_Char_1_LCDPort_DM_ALG_HIZ    High Impedance Analog 
  68:.\Generated_Source\PSoC4/LCD_Char_1_LCDPort.c **** *
  69:.\Generated_Source\PSoC4/LCD_Char_1_LCDPort.c **** * Return: 
  70:.\Generated_Source\PSoC4/LCD_Char_1_LCDPort.c **** *  None
  71:.\Generated_Source\PSoC4/LCD_Char_1_LCDPort.c **** *
  72:.\Generated_Source\PSoC4/LCD_Char_1_LCDPort.c **** *******************************************************************************/
  73:.\Generated_Source\PSoC4/LCD_Char_1_LCDPort.c **** void LCD_Char_1_LCDPort_SetDriveMode(uint8 mode) 
  74:.\Generated_Source\PSoC4/LCD_Char_1_LCDPort.c **** {
  86              		.loc 1 74 0
  87              		.cfi_startproc
  88 0000 80B5     		push	{r7, lr}
  89              		.cfi_def_cfa_offset 8
  90              		.cfi_offset 7, -8
  91              		.cfi_offset 14, -4
  92 0002 82B0     		sub	sp, sp, #8
  93              		.cfi_def_cfa_offset 16
  94 0004 00AF     		add	r7, sp, #0
  95              		.cfi_def_cfa_register 7
  96 0006 021C     		mov	r2, r0
  97 0008 FB1D     		add	r3, r7, #7
ARM GAS  C:\Users\Karsten\AppData\Local\Temp\ccFWJHRR.s 			page 4


  98 000a 1A70     		strb	r2, [r3]
  75:.\Generated_Source\PSoC4/LCD_Char_1_LCDPort.c **** 	SetP4PinDriveMode(LCD_Char_1_LCDPort__0__SHIFT, mode);
  99              		.loc 1 75 0
 100 000c 254B     		ldr	r3, .L5
 101 000e 254A     		ldr	r2, .L5
 102 0010 1268     		ldr	r2, [r2]
 103 0012 3821     		mov	r1, #56
 104 0014 101C     		mov	r0, r2
 105 0016 8843     		bic	r0, r1
 106 0018 011C     		mov	r1, r0
 107 001a FA1D     		add	r2, r7, #7
 108 001c 1278     		ldrb	r2, [r2]
 109 001e D200     		lsl	r2, r2, #3
 110 0020 0A43     		orr	r2, r1
 111 0022 1A60     		str	r2, [r3]
  76:.\Generated_Source\PSoC4/LCD_Char_1_LCDPort.c **** 	SetP4PinDriveMode(LCD_Char_1_LCDPort__1__SHIFT, mode);
 112              		.loc 1 76 0
 113 0024 1F4B     		ldr	r3, .L5
 114 0026 1F4A     		ldr	r2, .L5
 115 0028 1168     		ldr	r1, [r2]
 116 002a 1F4A     		ldr	r2, .L5+4
 117 002c 1140     		and	r1, r2
 118 002e FA1D     		add	r2, r7, #7
 119 0030 1278     		ldrb	r2, [r2]
 120 0032 9201     		lsl	r2, r2, #6
 121 0034 0A43     		orr	r2, r1
 122 0036 1A60     		str	r2, [r3]
  77:.\Generated_Source\PSoC4/LCD_Char_1_LCDPort.c **** 	SetP4PinDriveMode(LCD_Char_1_LCDPort__2__SHIFT, mode);
 123              		.loc 1 77 0
 124 0038 1A4B     		ldr	r3, .L5
 125 003a 1A4A     		ldr	r2, .L5
 126 003c 1168     		ldr	r1, [r2]
 127 003e 1B4A     		ldr	r2, .L5+8
 128 0040 1140     		and	r1, r2
 129 0042 FA1D     		add	r2, r7, #7
 130 0044 1278     		ldrb	r2, [r2]
 131 0046 5202     		lsl	r2, r2, #9
 132 0048 0A43     		orr	r2, r1
 133 004a 1A60     		str	r2, [r3]
  78:.\Generated_Source\PSoC4/LCD_Char_1_LCDPort.c **** 	SetP4PinDriveMode(LCD_Char_1_LCDPort__3__SHIFT, mode);
 134              		.loc 1 78 0
 135 004c 154B     		ldr	r3, .L5
 136 004e 154A     		ldr	r2, .L5
 137 0050 1168     		ldr	r1, [r2]
 138 0052 174A     		ldr	r2, .L5+12
 139 0054 1140     		and	r1, r2
 140 0056 FA1D     		add	r2, r7, #7
 141 0058 1278     		ldrb	r2, [r2]
 142 005a 1203     		lsl	r2, r2, #12
 143 005c 0A43     		orr	r2, r1
 144 005e 1A60     		str	r2, [r3]
  79:.\Generated_Source\PSoC4/LCD_Char_1_LCDPort.c **** 	SetP4PinDriveMode(LCD_Char_1_LCDPort__4__SHIFT, mode);
 145              		.loc 1 79 0
 146 0060 104B     		ldr	r3, .L5
 147 0062 104A     		ldr	r2, .L5
 148 0064 1168     		ldr	r1, [r2]
 149 0066 134A     		ldr	r2, .L5+16
ARM GAS  C:\Users\Karsten\AppData\Local\Temp\ccFWJHRR.s 			page 5


 150 0068 1140     		and	r1, r2
 151 006a FA1D     		add	r2, r7, #7
 152 006c 1278     		ldrb	r2, [r2]
 153 006e D203     		lsl	r2, r2, #15
 154 0070 0A43     		orr	r2, r1
 155 0072 1A60     		str	r2, [r3]
  80:.\Generated_Source\PSoC4/LCD_Char_1_LCDPort.c **** 	SetP4PinDriveMode(LCD_Char_1_LCDPort__5__SHIFT, mode);
 156              		.loc 1 80 0
 157 0074 0B4B     		ldr	r3, .L5
 158 0076 0B4A     		ldr	r2, .L5
 159 0078 1168     		ldr	r1, [r2]
 160 007a 0F4A     		ldr	r2, .L5+20
 161 007c 1140     		and	r1, r2
 162 007e FA1D     		add	r2, r7, #7
 163 0080 1278     		ldrb	r2, [r2]
 164 0082 9204     		lsl	r2, r2, #18
 165 0084 0A43     		orr	r2, r1
 166 0086 1A60     		str	r2, [r3]
  81:.\Generated_Source\PSoC4/LCD_Char_1_LCDPort.c **** 	SetP4PinDriveMode(LCD_Char_1_LCDPort__6__SHIFT, mode);
 167              		.loc 1 81 0
 168 0088 064B     		ldr	r3, .L5
 169 008a 064A     		ldr	r2, .L5
 170 008c 1168     		ldr	r1, [r2]
 171 008e 0B4A     		ldr	r2, .L5+24
 172 0090 1140     		and	r1, r2
 173 0092 FA1D     		add	r2, r7, #7
 174 0094 1278     		ldrb	r2, [r2]
 175 0096 5205     		lsl	r2, r2, #21
 176 0098 0A43     		orr	r2, r1
 177 009a 1A60     		str	r2, [r3]
  82:.\Generated_Source\PSoC4/LCD_Char_1_LCDPort.c **** }
 178              		.loc 1 82 0
 179 009c BD46     		mov	sp, r7
 180 009e 02B0     		add	sp, sp, #8
 181              		@ sp needed
 182 00a0 80BD     		pop	{r7, pc}
 183              	.L6:
 184 00a2 C046     		.align	2
 185              	.L5:
 186 00a4 08020440 		.word	1074004488
 187 00a8 3FFEFFFF 		.word	-449
 188 00ac FFF1FFFF 		.word	-3585
 189 00b0 FF8FFFFF 		.word	-28673
 190 00b4 FF7FFCFF 		.word	-229377
 191 00b8 FFFFE3FF 		.word	-1835009
 192 00bc FFFF1FFF 		.word	-14680065
 193              		.cfi_endproc
 194              	.LFE1:
 195              		.size	LCD_Char_1_LCDPort_SetDriveMode, .-LCD_Char_1_LCDPort_SetDriveMode
 196              		.section	.text.LCD_Char_1_LCDPort_Read,"ax",%progbits
 197              		.align	2
 198              		.global	LCD_Char_1_LCDPort_Read
 199              		.code	16
 200              		.thumb_func
 201              		.type	LCD_Char_1_LCDPort_Read, %function
 202              	LCD_Char_1_LCDPort_Read:
 203              	.LFB2:
ARM GAS  C:\Users\Karsten\AppData\Local\Temp\ccFWJHRR.s 			page 6


  83:.\Generated_Source\PSoC4/LCD_Char_1_LCDPort.c **** 
  84:.\Generated_Source\PSoC4/LCD_Char_1_LCDPort.c **** 
  85:.\Generated_Source\PSoC4/LCD_Char_1_LCDPort.c **** /*******************************************************************************
  86:.\Generated_Source\PSoC4/LCD_Char_1_LCDPort.c **** * Function Name: LCD_Char_1_LCDPort_Read
  87:.\Generated_Source\PSoC4/LCD_Char_1_LCDPort.c **** ********************************************************************************
  88:.\Generated_Source\PSoC4/LCD_Char_1_LCDPort.c **** *
  89:.\Generated_Source\PSoC4/LCD_Char_1_LCDPort.c **** * Summary:
  90:.\Generated_Source\PSoC4/LCD_Char_1_LCDPort.c **** *  Read the current value on the pins of the Digital Port in right justified 
  91:.\Generated_Source\PSoC4/LCD_Char_1_LCDPort.c **** *  form.
  92:.\Generated_Source\PSoC4/LCD_Char_1_LCDPort.c **** *
  93:.\Generated_Source\PSoC4/LCD_Char_1_LCDPort.c **** * Parameters:  
  94:.\Generated_Source\PSoC4/LCD_Char_1_LCDPort.c **** *  None 
  95:.\Generated_Source\PSoC4/LCD_Char_1_LCDPort.c **** *
  96:.\Generated_Source\PSoC4/LCD_Char_1_LCDPort.c **** * Return: 
  97:.\Generated_Source\PSoC4/LCD_Char_1_LCDPort.c **** *  Returns the current value of the Digital Port as a right justified number
  98:.\Generated_Source\PSoC4/LCD_Char_1_LCDPort.c **** *  
  99:.\Generated_Source\PSoC4/LCD_Char_1_LCDPort.c **** * Note:
 100:.\Generated_Source\PSoC4/LCD_Char_1_LCDPort.c **** *  Macro LCD_Char_1_LCDPort_ReadPS calls this function. 
 101:.\Generated_Source\PSoC4/LCD_Char_1_LCDPort.c **** *  
 102:.\Generated_Source\PSoC4/LCD_Char_1_LCDPort.c **** *******************************************************************************/
 103:.\Generated_Source\PSoC4/LCD_Char_1_LCDPort.c **** uint8 LCD_Char_1_LCDPort_Read(void) 
 104:.\Generated_Source\PSoC4/LCD_Char_1_LCDPort.c **** {
 204              		.loc 1 104 0
 205              		.cfi_startproc
 206 0000 80B5     		push	{r7, lr}
 207              		.cfi_def_cfa_offset 8
 208              		.cfi_offset 7, -8
 209              		.cfi_offset 14, -4
 210 0002 00AF     		add	r7, sp, #0
 211              		.cfi_def_cfa_register 7
 105:.\Generated_Source\PSoC4/LCD_Char_1_LCDPort.c ****     return (uint8)((LCD_Char_1_LCDPort_PS & LCD_Char_1_LCDPort_MASK) >> LCD_Char_1_LCDPort_SHIFT);
 212              		.loc 1 105 0
 213 0004 044B     		ldr	r3, .L9
 214 0006 1A68     		ldr	r2, [r3]
 215 0008 FE23     		mov	r3, #254
 216 000a 1340     		and	r3, r2
 217 000c 5B08     		lsr	r3, r3, #1
 218 000e DBB2     		uxtb	r3, r3
 106:.\Generated_Source\PSoC4/LCD_Char_1_LCDPort.c **** }
 219              		.loc 1 106 0
 220 0010 181C     		mov	r0, r3
 221 0012 BD46     		mov	sp, r7
 222              		@ sp needed
 223 0014 80BD     		pop	{r7, pc}
 224              	.L10:
 225 0016 C046     		.align	2
 226              	.L9:
 227 0018 04020440 		.word	1074004484
 228              		.cfi_endproc
 229              	.LFE2:
 230              		.size	LCD_Char_1_LCDPort_Read, .-LCD_Char_1_LCDPort_Read
 231              		.section	.text.LCD_Char_1_LCDPort_ReadDataReg,"ax",%progbits
 232              		.align	2
 233              		.global	LCD_Char_1_LCDPort_ReadDataReg
 234              		.code	16
 235              		.thumb_func
 236              		.type	LCD_Char_1_LCDPort_ReadDataReg, %function
ARM GAS  C:\Users\Karsten\AppData\Local\Temp\ccFWJHRR.s 			page 7


 237              	LCD_Char_1_LCDPort_ReadDataReg:
 238              	.LFB3:
 107:.\Generated_Source\PSoC4/LCD_Char_1_LCDPort.c **** 
 108:.\Generated_Source\PSoC4/LCD_Char_1_LCDPort.c **** 
 109:.\Generated_Source\PSoC4/LCD_Char_1_LCDPort.c **** /*******************************************************************************
 110:.\Generated_Source\PSoC4/LCD_Char_1_LCDPort.c **** * Function Name: LCD_Char_1_LCDPort_ReadDataReg
 111:.\Generated_Source\PSoC4/LCD_Char_1_LCDPort.c **** ********************************************************************************
 112:.\Generated_Source\PSoC4/LCD_Char_1_LCDPort.c **** *
 113:.\Generated_Source\PSoC4/LCD_Char_1_LCDPort.c **** * Summary:
 114:.\Generated_Source\PSoC4/LCD_Char_1_LCDPort.c **** *  Read the current value assigned to a Digital Port's data output register
 115:.\Generated_Source\PSoC4/LCD_Char_1_LCDPort.c **** *
 116:.\Generated_Source\PSoC4/LCD_Char_1_LCDPort.c **** * Parameters:  
 117:.\Generated_Source\PSoC4/LCD_Char_1_LCDPort.c **** *  None 
 118:.\Generated_Source\PSoC4/LCD_Char_1_LCDPort.c **** *
 119:.\Generated_Source\PSoC4/LCD_Char_1_LCDPort.c **** * Return: 
 120:.\Generated_Source\PSoC4/LCD_Char_1_LCDPort.c **** *  Returns the current value assigned to the Digital Port's data output register
 121:.\Generated_Source\PSoC4/LCD_Char_1_LCDPort.c **** *  
 122:.\Generated_Source\PSoC4/LCD_Char_1_LCDPort.c **** *******************************************************************************/
 123:.\Generated_Source\PSoC4/LCD_Char_1_LCDPort.c **** uint8 LCD_Char_1_LCDPort_ReadDataReg(void) 
 124:.\Generated_Source\PSoC4/LCD_Char_1_LCDPort.c **** {
 239              		.loc 1 124 0
 240              		.cfi_startproc
 241 0000 80B5     		push	{r7, lr}
 242              		.cfi_def_cfa_offset 8
 243              		.cfi_offset 7, -8
 244              		.cfi_offset 14, -4
 245 0002 00AF     		add	r7, sp, #0
 246              		.cfi_def_cfa_register 7
 125:.\Generated_Source\PSoC4/LCD_Char_1_LCDPort.c ****     return (uint8)((LCD_Char_1_LCDPort_DR & LCD_Char_1_LCDPort_MASK) >> LCD_Char_1_LCDPort_SHIFT);
 247              		.loc 1 125 0
 248 0004 044B     		ldr	r3, .L13
 249 0006 1A68     		ldr	r2, [r3]
 250 0008 FE23     		mov	r3, #254
 251 000a 1340     		and	r3, r2
 252 000c 5B08     		lsr	r3, r3, #1
 253 000e DBB2     		uxtb	r3, r3
 126:.\Generated_Source\PSoC4/LCD_Char_1_LCDPort.c **** }
 254              		.loc 1 126 0
 255 0010 181C     		mov	r0, r3
 256 0012 BD46     		mov	sp, r7
 257              		@ sp needed
 258 0014 80BD     		pop	{r7, pc}
 259              	.L14:
 260 0016 C046     		.align	2
 261              	.L13:
 262 0018 00020440 		.word	1074004480
 263              		.cfi_endproc
 264              	.LFE3:
 265              		.size	LCD_Char_1_LCDPort_ReadDataReg, .-LCD_Char_1_LCDPort_ReadDataReg
 266              		.section	.text.LCD_Char_1_LCDPort_ClearInterrupt,"ax",%progbits
 267              		.align	2
 268              		.global	LCD_Char_1_LCDPort_ClearInterrupt
 269              		.code	16
 270              		.thumb_func
 271              		.type	LCD_Char_1_LCDPort_ClearInterrupt, %function
 272              	LCD_Char_1_LCDPort_ClearInterrupt:
 273              	.LFB4:
ARM GAS  C:\Users\Karsten\AppData\Local\Temp\ccFWJHRR.s 			page 8


 127:.\Generated_Source\PSoC4/LCD_Char_1_LCDPort.c **** 
 128:.\Generated_Source\PSoC4/LCD_Char_1_LCDPort.c **** 
 129:.\Generated_Source\PSoC4/LCD_Char_1_LCDPort.c **** /* If Interrupts Are Enabled for this Pins component */ 
 130:.\Generated_Source\PSoC4/LCD_Char_1_LCDPort.c **** #if defined(LCD_Char_1_LCDPort_INTSTAT) 
 131:.\Generated_Source\PSoC4/LCD_Char_1_LCDPort.c **** 
 132:.\Generated_Source\PSoC4/LCD_Char_1_LCDPort.c ****     /*******************************************************************************
 133:.\Generated_Source\PSoC4/LCD_Char_1_LCDPort.c ****     * Function Name: LCD_Char_1_LCDPort_ClearInterrupt
 134:.\Generated_Source\PSoC4/LCD_Char_1_LCDPort.c ****     ********************************************************************************
 135:.\Generated_Source\PSoC4/LCD_Char_1_LCDPort.c ****     *
 136:.\Generated_Source\PSoC4/LCD_Char_1_LCDPort.c ****     * Summary:
 137:.\Generated_Source\PSoC4/LCD_Char_1_LCDPort.c ****     *  Clears any active interrupts attached to port and returns the value of the 
 138:.\Generated_Source\PSoC4/LCD_Char_1_LCDPort.c ****     *  interrupt status register.
 139:.\Generated_Source\PSoC4/LCD_Char_1_LCDPort.c ****     *
 140:.\Generated_Source\PSoC4/LCD_Char_1_LCDPort.c ****     * Parameters:  
 141:.\Generated_Source\PSoC4/LCD_Char_1_LCDPort.c ****     *  None 
 142:.\Generated_Source\PSoC4/LCD_Char_1_LCDPort.c ****     *
 143:.\Generated_Source\PSoC4/LCD_Char_1_LCDPort.c ****     * Return: 
 144:.\Generated_Source\PSoC4/LCD_Char_1_LCDPort.c ****     *  Returns the value of the interrupt status register
 145:.\Generated_Source\PSoC4/LCD_Char_1_LCDPort.c ****     *  
 146:.\Generated_Source\PSoC4/LCD_Char_1_LCDPort.c ****     *******************************************************************************/
 147:.\Generated_Source\PSoC4/LCD_Char_1_LCDPort.c ****     uint8 LCD_Char_1_LCDPort_ClearInterrupt(void) 
 148:.\Generated_Source\PSoC4/LCD_Char_1_LCDPort.c ****     {
 274              		.loc 1 148 0
 275              		.cfi_startproc
 276 0000 80B5     		push	{r7, lr}
 277              		.cfi_def_cfa_offset 8
 278              		.cfi_offset 7, -8
 279              		.cfi_offset 14, -4
 280 0002 82B0     		sub	sp, sp, #8
 281              		.cfi_def_cfa_offset 16
 282 0004 00AF     		add	r7, sp, #0
 283              		.cfi_def_cfa_register 7
 149:.\Generated_Source\PSoC4/LCD_Char_1_LCDPort.c **** 		uint8 maskedStatus = (uint8)(LCD_Char_1_LCDPort_INTSTAT & LCD_Char_1_LCDPort_MASK);
 284              		.loc 1 149 0
 285 0006 094B     		ldr	r3, .L17
 286 0008 1B68     		ldr	r3, [r3]
 287 000a DAB2     		uxtb	r2, r3
 288 000c FB1D     		add	r3, r7, #7
 289 000e 0121     		mov	r1, #1
 290 0010 8A43     		bic	r2, r1
 291 0012 1A70     		strb	r2, [r3]
 150:.\Generated_Source\PSoC4/LCD_Char_1_LCDPort.c **** 		LCD_Char_1_LCDPort_INTSTAT = maskedStatus;
 292              		.loc 1 150 0
 293 0014 054B     		ldr	r3, .L17
 294 0016 FA1D     		add	r2, r7, #7
 295 0018 1278     		ldrb	r2, [r2]
 296 001a 1A60     		str	r2, [r3]
 151:.\Generated_Source\PSoC4/LCD_Char_1_LCDPort.c ****         return maskedStatus >> LCD_Char_1_LCDPort_SHIFT;
 297              		.loc 1 151 0
 298 001c FB1D     		add	r3, r7, #7
 299 001e 1B78     		ldrb	r3, [r3]
 300 0020 5B08     		lsr	r3, r3, #1
 301 0022 DBB2     		uxtb	r3, r3
 152:.\Generated_Source\PSoC4/LCD_Char_1_LCDPort.c ****     }
 302              		.loc 1 152 0
 303 0024 181C     		mov	r0, r3
 304 0026 BD46     		mov	sp, r7
ARM GAS  C:\Users\Karsten\AppData\Local\Temp\ccFWJHRR.s 			page 9


 305 0028 02B0     		add	sp, sp, #8
 306              		@ sp needed
 307 002a 80BD     		pop	{r7, pc}
 308              	.L18:
 309              		.align	2
 310              	.L17:
 311 002c 10020440 		.word	1074004496
 312              		.cfi_endproc
 313              	.LFE4:
 314              		.size	LCD_Char_1_LCDPort_ClearInterrupt, .-LCD_Char_1_LCDPort_ClearInterrupt
 315              		.text
 316              	.Letext0:
 317              		.file 2 ".\\Generated_Source\\PSoC4\\cytypes.h"