ARM GAS  C:\Users\Karsten\AppData\Local\Temp\ccGv3CoA.s 			page 1


   1              		.cpu cortex-m0
   2              		.fpu softvfp
   3              		.eabi_attribute 20, 1
   4              		.eabi_attribute 21, 1
   5              		.eabi_attribute 23, 3
   6              		.eabi_attribute 24, 1
   7              		.eabi_attribute 25, 1
   8              		.eabi_attribute 26, 1
   9              		.eabi_attribute 30, 6
  10              		.eabi_attribute 34, 0
  11              		.eabi_attribute 18, 4
  12              		.code	16
  13              		.file	"main.c"
  14              		.text
  15              	.Ltext0:
  16              		.cfi_sections	.debug_frame
  17              		.comm	ph7,4,4
  18              		.comm	ph4,4,4
  19              		.comm	phVal,4,4
  20              		.comm	adcResult,2,2
  21              		.comm	adcResultmV,2,2
  22              		.global	__aeabi_fsub
  23              		.global	__aeabi_fdiv
  24              		.global	__aeabi_fadd
  25              		.section	.text.mvToPh,"ax",%progbits
  26              		.align	2
  27              		.global	mvToPh
  28              		.code	16
  29              		.thumb_func
  30              		.type	mvToPh, %function
  31              	mvToPh:
  32              	.LFB33:
  33              		.file 1 ".\\main.c"
   1:.\main.c      **** /* ========================================
   2:.\main.c      ****  *
   3:.\main.c      ****  * Copyright YOUR COMPANY, THE YEAR
   4:.\main.c      ****  * All Rights Reserved
   5:.\main.c      ****  * UNPUBLISHED, LICENSED SOFTWARE.
   6:.\main.c      ****  *
   7:.\main.c      ****  * CONFIDENTIAL AND PROPRIETARY INFORMATION
   8:.\main.c      ****  * WHICH IS THE PROPERTY OF your company.
   9:.\main.c      ****  *
  10:.\main.c      ****  * ========================================
  11:.\main.c      **** */
  12:.\main.c      **** #include <project.h>
  13:.\main.c      **** 
  14:.\main.c      **** #define ph7Default -29
  15:.\main.c      **** #define ph4Default 149
  16:.\main.c      **** float ph7;
  17:.\main.c      **** float ph4;
  18:.\main.c      **** float phVal;
  19:.\main.c      **** int16 adcResult;
  20:.\main.c      **** int16 adcResultmV;
  21:.\main.c      **** 
  22:.\main.c      **** // Omregner til pH-værdi. ph4 og ph7 er parametrene som bruges til at kalibrere proben
  23:.\main.c      **** float mvToPh(float mv, float ph4, float ph7){     
  34              		.loc 1 23 0
ARM GAS  C:\Users\Karsten\AppData\Local\Temp\ccGv3CoA.s 			page 2


  35              		.cfi_startproc
  36 0000 90B5     		push	{r4, r7, lr}
  37              		.cfi_def_cfa_offset 12
  38              		.cfi_offset 4, -12
  39              		.cfi_offset 7, -8
  40              		.cfi_offset 14, -4
  41 0002 85B0     		sub	sp, sp, #20
  42              		.cfi_def_cfa_offset 32
  43 0004 00AF     		add	r7, sp, #0
  44              		.cfi_def_cfa_register 7
  45 0006 F860     		str	r0, [r7, #12]
  46 0008 B960     		str	r1, [r7, #8]
  47 000a 7A60     		str	r2, [r7, #4]
  24:.\main.c      ****     return ((ph7-mv)/((ph4-ph7)/3)+7);
  48              		.loc 1 24 0
  49 000c 7868     		ldr	r0, [r7, #4]
  50 000e F968     		ldr	r1, [r7, #12]
  51 0010 FFF7FEFF 		bl	__aeabi_fsub
  52 0014 031C     		add	r3, r0, #0
  53 0016 1C1C     		add	r4, r3, #0
  54 0018 B868     		ldr	r0, [r7, #8]
  55 001a 7968     		ldr	r1, [r7, #4]
  56 001c FFF7FEFF 		bl	__aeabi_fsub
  57 0020 031C     		add	r3, r0, #0
  58 0022 181C     		add	r0, r3, #0
  59 0024 0849     		ldr	r1, .L3
  60 0026 FFF7FEFF 		bl	__aeabi_fdiv
  61 002a 031C     		add	r3, r0, #0
  62 002c 201C     		add	r0, r4, #0
  63 002e 191C     		add	r1, r3, #0
  64 0030 FFF7FEFF 		bl	__aeabi_fdiv
  65 0034 031C     		add	r3, r0, #0
  66 0036 181C     		add	r0, r3, #0
  67 0038 0449     		ldr	r1, .L3+4
  68 003a FFF7FEFF 		bl	__aeabi_fadd
  69 003e 031C     		add	r3, r0, #0
  25:.\main.c      **** }
  70              		.loc 1 25 0
  71 0040 181C     		add	r0, r3, #0
  72 0042 BD46     		mov	sp, r7
  73 0044 05B0     		add	sp, sp, #20
  74              		@ sp needed
  75 0046 90BD     		pop	{r4, r7, pc}
  76              	.L4:
  77              		.align	2
  78              	.L3:
  79 0048 00004040 		.word	1077936128
  80 004c 0000E040 		.word	1088421888
  81              		.cfi_endproc
  82              	.LFE33:
  83              		.size	mvToPh, .-mvToPh
  84              		.global	__aeabi_i2f
  85              		.section	.text.getPhVal,"ax",%progbits
  86              		.align	2
  87              		.global	getPhVal
  88              		.code	16
  89              		.thumb_func
ARM GAS  C:\Users\Karsten\AppData\Local\Temp\ccGv3CoA.s 			page 3


  90              		.type	getPhVal, %function
  91              	getPhVal:
  92              	.LFB34:
  26:.\main.c      **** float getPhVal(){
  93              		.loc 1 26 0
  94              		.cfi_startproc
  95 0000 80B5     		push	{r7, lr}
  96              		.cfi_def_cfa_offset 8
  97              		.cfi_offset 7, -8
  98              		.cfi_offset 14, -4
  99 0002 00AF     		add	r7, sp, #0
 100              		.cfi_def_cfa_register 7
  27:.\main.c      ****     while(ADC_IsEndConversion(ADC_WAIT_FOR_RESULT)== 0){};
 101              		.loc 1 27 0
 102 0004 C046     		mov	r8, r8
 103              	.L6:
 104              		.loc 1 27 0 is_stmt 0 discriminator 1
 105 0006 0220     		mov	r0, #2
 106 0008 FFF7FEFF 		bl	ADC_IsEndConversion
 107 000c 031C     		mov	r3, r0
 108 000e 002B     		cmp	r3, #0
 109 0010 F9D0     		beq	.L6
  28:.\main.c      ****     
  29:.\main.c      ****     adcResult=ADC_GetResult16(0);
 110              		.loc 1 29 0 is_stmt 1
 111 0012 0020     		mov	r0, #0
 112 0014 FFF7FEFF 		bl	ADC_GetResult16
 113 0018 031C     		mov	r3, r0
 114 001a 1A1C     		mov	r2, r3
 115 001c 104B     		ldr	r3, .L8
 116 001e 1A80     		strh	r2, [r3]
  30:.\main.c      ****     adcResultmV = ADC_CountsTo_mVolts(0,adcResult);
 117              		.loc 1 30 0
 118 0020 0F4B     		ldr	r3, .L8
 119 0022 1B88     		ldrh	r3, [r3]
 120 0024 1BB2     		sxth	r3, r3
 121 0026 0020     		mov	r0, #0
 122 0028 191C     		mov	r1, r3
 123 002a FFF7FEFF 		bl	ADC_CountsTo_mVolts
 124 002e 031C     		mov	r3, r0
 125 0030 1A1C     		mov	r2, r3
 126 0032 0C4B     		ldr	r3, .L8+4
 127 0034 1A80     		strh	r2, [r3]
  31:.\main.c      ****     
  32:.\main.c      ****     return mvToPh(adcResultmV,ph4,ph7);
 128              		.loc 1 32 0
 129 0036 0B4B     		ldr	r3, .L8+4
 130 0038 1B88     		ldrh	r3, [r3]
 131 003a 1BB2     		sxth	r3, r3
 132 003c 181C     		mov	r0, r3
 133 003e FFF7FEFF 		bl	__aeabi_i2f
 134 0042 011C     		add	r1, r0, #0
 135 0044 084B     		ldr	r3, .L8+8
 136 0046 1A68     		ldr	r2, [r3]
 137 0048 084B     		ldr	r3, .L8+12
 138 004a 1B68     		ldr	r3, [r3]
 139 004c 081C     		add	r0, r1, #0
ARM GAS  C:\Users\Karsten\AppData\Local\Temp\ccGv3CoA.s 			page 4


 140 004e 111C     		add	r1, r2, #0
 141 0050 1A1C     		add	r2, r3, #0
 142 0052 FFF7FEFF 		bl	mvToPh
 143 0056 031C     		add	r3, r0, #0
  33:.\main.c      **** }
 144              		.loc 1 33 0
 145 0058 181C     		add	r0, r3, #0
 146 005a BD46     		mov	sp, r7
 147              		@ sp needed
 148 005c 80BD     		pop	{r7, pc}
 149              	.L9:
 150 005e C046     		.align	2
 151              	.L8:
 152 0060 00000000 		.word	adcResult
 153 0064 00000000 		.word	adcResultmV
 154 0068 00000000 		.word	ph4
 155 006c 00000000 		.word	ph7
 156              		.cfi_endproc
 157              	.LFE34:
 158              		.size	getPhVal, .-getPhVal
 159              		.section	.text.CALIBRATE,"ax",%progbits
 160              		.align	2
 161              		.global	CALIBRATE
 162              		.code	16
 163              		.thumb_func
 164              		.type	CALIBRATE, %function
 165              	CALIBRATE:
 166              	.LFB35:
  34:.\main.c      **** 
  35:.\main.c      **** CY_ISR(CALIBRATE)
  36:.\main.c      **** {
 167              		.loc 1 36 0
 168              		.cfi_startproc
 169 0000 80B5     		push	{r7, lr}
 170              		.cfi_def_cfa_offset 8
 171              		.cfi_offset 7, -8
 172              		.cfi_offset 14, -4
 173 0002 82B0     		sub	sp, sp, #8
 174              		.cfi_def_cfa_offset 16
 175 0004 00AF     		add	r7, sp, #0
 176              		.cfi_def_cfa_register 7
  37:.\main.c      ****     int8 status;
  38:.\main.c      ****     if(CALI_Read() ==  1){ // vent på at knappen har været nede i 3 sekunder
 177              		.loc 1 38 0
 178 0006 FFF7FEFF 		bl	CALI_Read
 179 000a 031C     		mov	r3, r0
 180 000c 012B     		cmp	r3, #1
 181 000e 0BD1     		bne	.L11
  39:.\main.c      ****     CyDelay(3000);
 182              		.loc 1 39 0
 183 0010 194B     		ldr	r3, .L13
 184 0012 181C     		mov	r0, r3
 185 0014 FFF7FEFF 		bl	CyDelay
  40:.\main.c      ****     if(CALI_Read() == 1)
 186              		.loc 1 40 0
 187 0018 FFF7FEFF 		bl	CALI_Read
 188 001c 031C     		mov	r3, r0
ARM GAS  C:\Users\Karsten\AppData\Local\Temp\ccGv3CoA.s 			page 5


 189 001e 012B     		cmp	r3, #1
 190 0020 02D1     		bne	.L11
  41:.\main.c      ****     status = 1;
 191              		.loc 1 41 0
 192 0022 FB1D     		add	r3, r7, #7
 193 0024 0122     		mov	r2, #1
 194 0026 1A70     		strb	r2, [r3]
 195              	.L11:
  42:.\main.c      ****     }
  43:.\main.c      ****     if(status == 1){
 196              		.loc 1 43 0
 197 0028 FB1D     		add	r3, r7, #7
 198 002a 1B78     		ldrb	r3, [r3]
 199 002c 5BB2     		sxtb	r3, r3
 200 002e 012B     		cmp	r3, #1
 201 0030 1FD1     		bne	.L10
  44:.\main.c      ****     getPhVal();
 202              		.loc 1 44 0
 203 0032 FFF7FEFF 		bl	getPhVal
  45:.\main.c      ****     ph7 = adcResultmV;
 204              		.loc 1 45 0
 205 0036 114B     		ldr	r3, .L13+4
 206 0038 1B88     		ldrh	r3, [r3]
 207 003a 1BB2     		sxth	r3, r3
 208 003c 181C     		mov	r0, r3
 209 003e FFF7FEFF 		bl	__aeabi_i2f
 210 0042 021C     		add	r2, r0, #0
 211 0044 0E4B     		ldr	r3, .L13+8
 212 0046 1A60     		str	r2, [r3]
  46:.\main.c      ****     ph4 = ph4Default + (ph7 - ph7Default); // ph4Default + korrektion 
 213              		.loc 1 46 0
 214 0048 0D4B     		ldr	r3, .L13+8
 215 004a 1B68     		ldr	r3, [r3]
 216 004c 181C     		add	r0, r3, #0
 217 004e 0D49     		ldr	r1, .L13+12
 218 0050 FFF7FEFF 		bl	__aeabi_fadd
 219 0054 031C     		add	r3, r0, #0
 220 0056 181C     		add	r0, r3, #0
 221 0058 0B49     		ldr	r1, .L13+16
 222 005a FFF7FEFF 		bl	__aeabi_fadd
 223 005e 031C     		add	r3, r0, #0
 224 0060 1A1C     		add	r2, r3, #0
 225 0062 0A4B     		ldr	r3, .L13+20
 226 0064 1A60     		str	r2, [r3]
  47:.\main.c      ****     RED_LED_Write(0);
 227              		.loc 1 47 0
 228 0066 0020     		mov	r0, #0
 229 0068 FFF7FEFF 		bl	RED_LED_Write
  48:.\main.c      ****     GREEN_LED_Write(1);
 230              		.loc 1 48 0
 231 006c 0120     		mov	r0, #1
 232 006e FFF7FEFF 		bl	GREEN_LED_Write
 233              	.L10:
  49:.\main.c      ****     }
  50:.\main.c      **** }
 234              		.loc 1 50 0
 235 0072 BD46     		mov	sp, r7
ARM GAS  C:\Users\Karsten\AppData\Local\Temp\ccGv3CoA.s 			page 6


 236 0074 02B0     		add	sp, sp, #8
 237              		@ sp needed
 238 0076 80BD     		pop	{r7, pc}
 239              	.L14:
 240              		.align	2
 241              	.L13:
 242 0078 B80B0000 		.word	3000
 243 007c 00000000 		.word	adcResultmV
 244 0080 00000000 		.word	ph7
 245 0084 0000E841 		.word	1105723392
 246 0088 00001543 		.word	1125449728
 247 008c 00000000 		.word	ph4
 248              		.cfi_endproc
 249              	.LFE35:
 250              		.size	CALIBRATE, .-CALIBRATE
 251              		.section	.text.main,"ax",%progbits
 252              		.align	2
 253              		.global	main
 254              		.code	16
 255              		.thumb_func
 256              		.type	main, %function
 257              	main:
 258              	.LFB36:
  51:.\main.c      **** 
  52:.\main.c      **** int main()
  53:.\main.c      **** {
 259              		.loc 1 53 0
 260              		.cfi_startproc
 261 0000 80B5     		push	{r7, lr}
 262              		.cfi_def_cfa_offset 8
 263              		.cfi_offset 7, -8
 264              		.cfi_offset 14, -4
 265 0002 00AF     		add	r7, sp, #0
 266              		.cfi_def_cfa_register 7
  54:.\main.c      ****     ph7 = ph7Default; // Default værdi
 267              		.loc 1 54 0
 268 0004 0E4B     		ldr	r3, .L17
 269 0006 0F4A     		ldr	r2, .L17+4
 270 0008 1A60     		str	r2, [r3]
  55:.\main.c      ****     ph4 = ph4Default; // Default værdi 
 271              		.loc 1 55 0
 272 000a 0F4B     		ldr	r3, .L17+8
 273 000c 0F4A     		ldr	r2, .L17+12
 274 000e 1A60     		str	r2, [r3]
  56:.\main.c      ****     Opamp_1_Start();
 275              		.loc 1 56 0
 276 0010 FFF7FEFF 		bl	Opamp_1_Start
  57:.\main.c      ****     ADC_Start();
 277              		.loc 1 57 0
 278 0014 FFF7FEFF 		bl	ADC_Start
  58:.\main.c      ****     ADC_StartConvert();
 279              		.loc 1 58 0
 280 0018 FFF7FEFF 		bl	ADC_StartConvert
  59:.\main.c      ****     Calibrate_StartEx(CALIBRATE);
 281              		.loc 1 59 0
 282 001c 0C4B     		ldr	r3, .L17+16
 283 001e 181C     		mov	r0, r3
ARM GAS  C:\Users\Karsten\AppData\Local\Temp\ccGv3CoA.s 			page 7


 284 0020 FFF7FEFF 		bl	Calibrate_StartEx
  60:.\main.c      ****     CyGlobalIntEnable; 
 285              		.loc 1 60 0
 286              	@ 60 ".\main.c" 1
 287 0024 62B6     		CPSIE   i
 288              	@ 0 "" 2
  61:.\main.c      ****     RED_LED_Write(1);
 289              		.loc 1 61 0
 290              		.code	16
 291 0026 0120     		mov	r0, #1
 292 0028 FFF7FEFF 		bl	RED_LED_Write
  62:.\main.c      ****     GREEN_LED_Write(0);
 293              		.loc 1 62 0
 294 002c 0020     		mov	r0, #0
 295 002e FFF7FEFF 		bl	GREEN_LED_Write
 296              	.L16:
  63:.\main.c      ****      
  64:.\main.c      ****    while(1){
  65:.\main.c      ****    phVal = getPhVal();
 297              		.loc 1 65 0 discriminator 1
 298 0032 FFF7FEFF 		bl	getPhVal
 299 0036 021C     		add	r2, r0, #0
 300 0038 064B     		ldr	r3, .L17+20
 301 003a 1A60     		str	r2, [r3]
  66:.\main.c      **** }
 302              		.loc 1 66 0 discriminator 1
 303 003c F9E7     		b	.L16
 304              	.L18:
 305 003e C046     		.align	2
 306              	.L17:
 307 0040 00000000 		.word	ph7
 308 0044 0000E8C1 		.word	-1041760256
 309 0048 00000000 		.word	ph4
 310 004c 00001543 		.word	1125449728
 311 0050 00000000 		.word	CALIBRATE
 312 0054 00000000 		.word	phVal
 313              		.cfi_endproc
 314              	.LFE36:
 315              		.size	main, .-main
 316              		.text
 317              	.Letext0:
 318              		.file 2 ".\\Generated_Source\\PSoC4/cytypes.h"